MPASM 5.86               JOYSTICK TO PWM.ASM   4-1-2022  0:39:49         PAGE  1


LOC  OBJECT CODE     LINE SOURCE TEXT
  VALUE

Warning[205]: Found directive in column 1. (LIST)
Warning[215]: Processor superseded by command line.  Verify processor symbol.
                      00001 LIST P = PIC18F4321 F = INHX32
                      00002     #include <p18f4321.inc>
                      00001         LIST
                      00002 
                      00003 ;==========================================================================
                      00004 ; Build date : Oct 24 2019
                      00005 ;  MPASM PIC18F4321 processor include
                      00006 ; 
                      00007 ;  (c) Copyright 1999-2019 Microchip Technology, All rights reserved
                      00008 ;==========================================================================
                      00009 
                      01455         LIST
                      00003     CONFIG OSC = INTIO2
                      00004     CONFIG PBADEN = DIG
                      00005     CONFIG WDT = OFF
                      00006     
                      00007     
Warning[207]: Found label after column 1. (readH)
  00000001            00008     readH EQU 0x01
Warning[207]: Found label after column 1. (readL)
  00000002            00009     readL EQU 0x02
                      00010  
Warning[207]: Found label after column 1. (position)
  00000003            00011     position EQU 0x03
Warning[207]: Found label after column 1. (flags)
  00000004            00012     flags EQU 0x04 
                      00013     ; 0 - joystick flag | 1 - manual mode (1 = java 0 = joy) | 2 - manual hit button pressed | 3 - mode 
                            (1 = automatic 0 = manual) |
                      00014     ; 4 - record flag (0 = normal | 1 = record) | 5 - 60s reached flag | 6 - save json ok flag (1 = can 
                            save 0 = cant save) 
                      00015     ; 7 - at end
                      00016     
Warning[207]: Found label after column 1. (timeNoteL)
  00000005            00017     timeNoteL EQU 0x05 
Warning[207]: Found label after column 1. (timeNoteH)
  00000006            00018     timeNoteH EQU 0x06
                      00019     
Warning[207]: Found label after column 1. (savedTimeL)
  00000007            00020     savedTimeL EQU 0x07
Warning[207]: Found label after column 1. (savedTimeH)
  00000008            00021     savedTimeH EQU 0x08
Warning[207]: Found label after column 1. (servoFlags)
  00000009            00022     servoFlags EQU 0x09 ; 0 - servo x PWM done | 1 - servo y PWM done | 2 - hit
                      00023   
Warning[207]: Found label after column 1. (debouce_counterL)
  0000000A            00024     debouce_counterL EQU 0x0A
Warning[207]: Found label after column 1. (debouce_counterH)
  0000000B            00025     debouce_counterH EQU 0x0B
                      00026     
                      00027  
Warning[207]: Found label after column 1. (recordTimeL)
MPASM 5.86               JOYSTICK TO PWM.ASM   4-1-2022  0:39:49         PAGE  2


LOC  OBJECT CODE     LINE SOURCE TEXT
  VALUE

  0000000C            00028     recordTimeL EQU 0x0C
Warning[207]: Found label after column 1. (recordTimeH)
  0000000D            00029     recordTimeH EQU 0x0D
Warning[207]: Found label after column 1. (noteLetter)
  0000000E            00030     noteLetter EQU 0x0E
                      00031  
Warning[207]: Found label after column 1. (pwmTimeH)
  00000020            00032     pwmTimeH EQU 0x20
Warning[207]: Found label after column 1. (pwmTimeL)
  00000021            00033     pwmTimeL EQU 0x21
Warning[207]: Found label after column 1. (Hit_Counter)
  00000022            00034     Hit_Counter EQU 0x22
                      00035  
Warning[207]: Found label after column 1. (TABLE7s)
  00000010            00036     TABLE7s EQU 0x10
                      00037     
Warning[207]: Found label after column 1. (Position_RAM_Notes)
  00000040            00038     Position_RAM_Notes EQU 0x40     ; FSR0
Warning[207]: Found label after column 1. (Position_RAM_Delay_L)
  00000080            00039     Position_RAM_Delay_L EQU 0x80   ; FSR1
Warning[207]: Found label after column 1. (Position_RAM_Delay_H)
  000000C0            00040     Position_RAM_Delay_H EQU 0xC0   ; FSR2
                      00041     
                      00042     ORG TABLE7s
                      00043     ; C, D - 0x10, 0x11
000010 5E39           00044     DB b'00111001', b'01011110'
                      00045     ; E, F - 0x12, 0x13
000012 7179           00046     DB b'01111001', b'01110001'
                      00047     ; G, A - 0x14, 0x15
000014 776F           00048     DB b'01101111', b'01110111'
                      00049     ; B, c - 0x16, 0x17
000016 587C           00050     DB b'01111100', b'01011000'
                      00051     
                      00052     
                      00053     
                      00054     ORG 0x0000
000000 EF?? F???      00055     GOTO MAIN
                      00056     ORG 0x0008
000008 EF?? F???      00057     GOTO HIGH_RSI
                      00058     ORG 0x0018
000018 0011           00059     RETFIE FAST
                      00060     
                      00061     
Warning[207]: Found label after column 1. (TMR0_INTERRUPT)
00001A                00062     TMR0_INTERRUPT
00001A 94F2           00063         BCF INTCON,TMR0IF,0
                      00064         
00001C 0E14           00065         MOVLW .20
00001E 260C           00066         ADDWF recordTimeL,1,0
                      00067         ;BTFSC STATUS,C,0 
                      00068         ;BTG LATD,7,0
                      00069         
000020 B0D8           00070         BTFSC STATUS,C,0 
MPASM 5.86               JOYSTICK TO PWM.ASM   4-1-2022  0:39:49         PAGE  3


LOC  OBJECT CODE     LINE SOURCE TEXT
  VALUE

000022 2A0D           00071         INCF recordTimeH,1,0
                      00072         
                      00073         
000024 0EC0           00074         MOVLW LOW(.25536)
000026 6ED6           00075         MOVWF TMR0L,0
000028 0E63           00076         MOVLW HIGH(.25536)
00002A 6ED7           00077         MOVWF TMR0H,0
                      00078         
00002C 808B           00079         BSF LATC,0,0
00002E EC?? F???      00080         CALL CHECK_SERVO_X
000032 908B           00081         BCF LATC,0,0
                      00082         
000034 828B           00083         BSF LATC,1,0
000036 EC?? F???      00084         CALL CHECK_SERVO_Y
00003A 928B           00085         BCF LATC,1,0
                      00086         
                      00087         
                      00088         
                      00089         ;BTG LATD,7,0
                      00090         
00003C 0011           00091         RETFIE FAST
                      00092 
                      00093         
Warning[207]: Found label after column 1. (CHECK_SERVO_X)
00003E                00094     CHECK_SERVO_X
00003E EC?? F???      00095         CALL COUNT_X 
000042 EC?? F???      00096         CALL COUNT_X
000046 6A20           00097         CLRF pwmTimeH,0
                      00098         
Warning[207]: Found label after column 1. (SERVO_LOOP_X)
000048                00099         SERVO_LOOP_X
                      00100         ;MOVFF pwmTimeH,LATD
000048 2803           00101         INCF position,0,0
00004A 5C20           00102         SUBWF pwmTimeH,0 ;1
00004C B4D8           00103         BTFSC STATUS,Z,0 ; 3
00004E 0012           00104         RETURN ; 2 cycles
000050 EC?? F???      00105         CALL COUNT_X
000054 2A20           00106         INCF pwmTimeH,1,0 ; 1 cycle
000056 EF?? F???      00107         GOTO SERVO_LOOP_X ;2
                      00108         
Warning[207]: Found label after column 1. (COUNT_X)
00005A                00109         COUNT_X
00005A 6A21           00110             CLRF pwmTimeL,0
Warning[207]: Found label after column 1. (SERVO_X_COUNT_LOOP)
00005C                00111             SERVO_X_COUNT_LOOP
00005C 0E32           00112             MOVLW .50 ; 1 Cycle
00005E 5C21           00113             SUBWF pwmTimeL,0 ;1
000060 B4D8           00114             BTFSC STATUS,Z,0 ; 3
000062 0012           00115             RETURN ; 2 cycles
000064 2A21           00116             INCF pwmTimeL,1,0 ; 1 cycle
000066 EF?? F???      00117             GOTO SERVO_X_COUNT_LOOP ;2
                      00118         
Warning[207]: Found label after column 1. (CHECK_SERVO_Y)
MPASM 5.86               JOYSTICK TO PWM.ASM   4-1-2022  0:39:49         PAGE  4


LOC  OBJECT CODE     LINE SOURCE TEXT
  VALUE

00006A                00119     CHECK_SERVO_Y
00006A EC?? F???      00120         CALL COUNT_Y 
00006E EC?? F???      00121         CALL COUNT_Y
000072 6A20           00122         CLRF pwmTimeH,0
                      00123         
Warning[207]: Found label after column 1. (SERVO_LOOP_Y)
000074                00124         SERVO_LOOP_Y
                      00125         ;MOVFF pwmTimeH,LATD
000074 A009           00126         BTFSS servoFlags,0,0
000076 0E01           00127         MOVLW .1
000078 B009           00128         BTFSC servoFlags,0,0
00007A 0E08           00129         MOVLW .8
                      00130         
00007C 5C20           00131         SUBWF pwmTimeH,0 ;1
00007E B4D8           00132         BTFSC STATUS,Z,0 ; 3
000080 EF?? F???      00133         GOTO END_SERVO_Y ; 2 cycles
000084 EC?? F???      00134         CALL COUNT_Y
000088 2A20           00135         INCF pwmTimeH,1,0 ; 1 cycle
00008A EF?? F???      00136         GOTO SERVO_LOOP_Y ;2
                      00137         
Warning[207]: Found label after column 1. (COUNT_Y)
00008E                00138         COUNT_Y
00008E 6A21           00139             CLRF pwmTimeL,0
Warning[207]: Found label after column 1. (SERVO_Y_COUNT_LOOP)
000090                00140             SERVO_Y_COUNT_LOOP
000090 0E32           00141             MOVLW .50 ; number to count to before 16ms has passed - 1 Cycle
000092 5C21           00142             SUBWF pwmTimeL,0 ;1
000094 B4D8           00143             BTFSC STATUS,Z,0 ; 3
000096 0012           00144             RETURN ; 2 cycles
000098 2A21           00145             INCF pwmTimeL,1,0 ; 1 cycle
00009A EF?? F???      00146             GOTO SERVO_Y_COUNT_LOOP ;2
Warning[207]: Found label after column 1. (END_SERVO_Y)
00009E                00147         END_SERVO_Y
                      00148         
00009E A009           00149         BTFSS servoFlags,0,0
0000A0 0012           00150         RETURN
                      00151         
0000A2 0E14           00152         MOVLW .20
0000A4 5C22           00153         SUBWF Hit_Counter,0,0
0000A6 A4D8           00154         BTFSS STATUS,Z,0
0000A8 EF?? F???      00155         GOTO STILL_HITTING
0000AC 9009           00156         BCF servoFlags,0,0
0000AE 6A22           00157         CLRF Hit_Counter,0
0000B0 0012           00158         RETURN
                      00159         
Warning[207]: Found label after column 1. (STILL_HITTING)
0000B2                00160         STILL_HITTING
0000B2 2A22           00161         INCF Hit_Counter,1,0
0000B4 0012           00162         RETURN
                      00163         
Warning[207]: Found label after column 1. (DEBOUNCE_LOOP)
0000B6                00164     DEBOUNCE_LOOP
                      00165         ; (1 + (1 + 1 + 3 + 1 + 2 + 8)*a + 2)*Fosc = 16ms
MPASM 5.86               JOYSTICK TO PWM.ASM   4-1-2022  0:39:49         PAGE  5


LOC  OBJECT CODE     LINE SOURCE TEXT
  VALUE

0000B6 6A0A           00166         CLRF debouce_counterL,0 ; 1 cycle
0000B8 6A0B           00167         CLRF debouce_counterH,0 ; 1 cycle
Warning[207]: Found label after column 1. (INNER_BOUNCE_LOOP)
0000BA                00168         INNER_BOUNCE_LOOP
0000BA 2A0A           00169         INCF debouce_counterL,1,0 ; 1 cycle
0000BC B2D8           00170         BTFSC STATUS,DC,0           ; 2 cycles
0000BE 2A0B           00171         INCF debouce_counterH,1,0    ; 1 cycle
0000C0 0EC7           00172         MOVLW .199 ; number to count to before 16ms has passed - 1 Cycle
0000C2 5C0B           00173         SUBWF debouce_counterH,0,0 ; 1 cycle
0000C4 B4D8           00174         BTFSC STATUS,Z,0 ; 3 cycles
0000C6 0012           00175         RETURN ; 2 cycles
                      00176         
0000C8 EF?? F???      00177         GOTO INNER_BOUNCE_LOOP ; 2 cycles
                      00178         
                      00179     
Warning[207]: Found label after column 1. (CHANGE_MANUAL_MODE)
0000CC                00180     CHANGE_MANUAL_MODE
0000CC 90F0           00181         BCF INTCON3,INT1IF,0
0000CE EC?? F???      00182         CALL DEBOUNCE_LOOP
0000D2 B281           00183         BTFSC PORTB,1,0 ; if pushbutton is still pressed after debouncing loop then proceed, if not retu
                            rn
0000D4 0012           00184         RETURN
                      00185         
0000D6 BE04           00186         BTFSC flags,7,0
0000D8 0011           00187         RETFIE FAST
                      00188         
0000DA A604           00189         BTFSS flags,3,0
0000DC 7204           00190         BTG flags,1,0
                      00191         
                      00192         ;GOTO MANUAL_LOOP
0000DE 0012           00193         RETURN
                      00194         
Warning[207]: Found label after column 1. (CHANGE_MODE)
0000E0                00195     CHANGE_MODE
0000E0 92F0           00196         BCF INTCON3,INT2IF,0
0000E2 EC?? F???      00197         CALL DEBOUNCE_LOOP
0000E6 B481           00198         BTFSC PORTB,2,0 ; if pushbutton is still pressed after debouncing loop then proceed, if not retu
                            rn
0000E8 0012           00199         RETURN
                      00200         
0000EA B804           00201         BTFSC flags,4,0
0000EC 0012           00202         RETURN
                      00203         
0000EE BE04           00204         BTFSC flags,7,0
0000F0 0012           00205         RETURN
                      00206         
0000F2 7604           00207         BTG flags,3,0
                      00208         ;GOTO MANUAL_LOOP
0000F4 0012           00209         RETURN
                      00210         
Warning[207]: Found label after column 1. (SET_RECORDING)
0000F6                00211     SET_RECORDING
                      00212                 
MPASM 5.86               JOYSTICK TO PWM.ASM   4-1-2022  0:39:49         PAGE  6


LOC  OBJECT CODE     LINE SOURCE TEXT
  VALUE

0000F6 B604           00213         BTFSC flags,3,0
0000F8 0012           00214         RETURN
                      00215         
                      00216         
0000FA B804           00217         BTFSC flags,4,0
0000FC EF?? F???      00218         GOTO OLD_REC
000100 EC?? F???      00219         CALL NEW_RECORDING
000104 0012           00220         RETURN
                      00221         
Warning[207]: Found label after column 1. (OLD_REC)
000106                00222         OLD_REC
000106 EC?? F???      00223         CALL REC_OVER
                      00224         
                      00225         ;BTG flags,4,0
                      00226         
00010A 0012           00227         RETURN
                      00228         
                      00229         
Warning[207]: Found label after column 1. (WIPE_RAM)
00010C                00230     WIPE_RAM
00010C 0E01           00231         MOVLW 0x001
00010E 6EE0           00232         MOVWF BSR,0  ; selecting bank 1 of the ram
000110 EE00 F040      00233         LFSR 0, Position_RAM_Notes
                      00234         
Warning[207]: Found label after column 1. (WIPE_LOOP)
000114                00235         WIPE_LOOP
000114 B2EA           00236         BTFSC FSR0H, 1,0
000116 0012           00237         RETURN
                      00238         
000118 6AEF           00239         CLRF INDF0,0
00011A 2AE9           00240         INCF FSR0L,1
00011C B2D8           00241         BTFSC STATUS, DC,0
00011E 2AEA           00242         INCF FSR0H,1
000120 EF?? F???      00243         GOTO WIPE_LOOP
                      00244         
Warning[207]: Found label after column 1. (ASK_JAVA)
000124                00245     ASK_JAVA
000124 0E50           00246         MOVLW 'P'
000126 6EAD           00247         MOVWF TXREG,0
Warning[207]: Found label after column 1. (WAIT_TRANS_START_REC)
000128                00248         WAIT_TRANS_START_REC
000128 A2AC           00249             BTFSS TXSTA, 1, 0
00012A EF?? F???      00250             GOTO WAIT_TRANS_START_REC
                      00251         
                      00252             
Warning[207]: Found label after column 1. (WAIT_RX_START_REC)
00012E                00253         WAIT_RX_START_REC
                      00254             ;CALL CHECK_SERVOS
00012E AA9E           00255             BTFSS PIR1, RCIF, 0
000130 EF?? F???      00256             GOTO WAIT_RX_START_REC
                      00257             
                      00258         
000134 0E4B           00259         MOVLW 'K'
MPASM 5.86               JOYSTICK TO PWM.ASM   4-1-2022  0:39:49         PAGE  7


LOC  OBJECT CODE     LINE SOURCE TEXT
  VALUE

000136 5CAE           00260         SUBWF RCREG,0
000138 B4D8           00261         BTFSC STATUS, Z, 0
00013A 8C04           00262         BSF flags,6,0
                      00263         
                      00264         ;BTFSC flags,6,0
                      00265         ;SETF LATA,0
                      00266         
00013C B2AB           00267         BTFSC RCSTA,OERR,0 
00013E EC?? F???      00268         CALL OVERRUN
000142 0012           00269         RETURN
                      00270         
                      00271         
Warning[207]: Found label after column 1. (NEW_RECORDING)
000144                00272     NEW_RECORDING
                      00273         
000144 EC?? F???      00274         CALL WIPE_RAM
000148 EC?? F???      00275         CALL ASK_JAVA
00014C 8804           00276         BSF flags,4,0
                      00277         
00014E 848B           00278         BSF LATC,2,0
000150 968B           00279         BCF LATC,3,0
000152 988B           00280         BCF LATC,4,0
000154 EE00 F040      00281         LFSR 0, Position_RAM_Notes
000158 EE10 F080      00282         LFSR 1, Position_RAM_Delay_L
00015C EE20 F0C0      00283         LFSR 2, Position_RAM_Delay_H
                      00284         ;INCF FSR0L,1
                      00285         
                      00286         
                      00287         
000160 6A0D           00288         CLRF recordTimeH,0
000162 6A0C           00289         CLRF recordTimeL,0
000164 0012           00290         RETURN
                      00291         
Warning[207]: Found label after column 1. (RECORD_PRESSED)
000166                00292     RECORD_PRESSED
000166 B881           00293         BTFSC PORTB,4,0
000168 0012           00294         RETURN
00016A EC?? F???      00295         CALL DEBOUNCE_LOOP
00016E A881           00296         BTFSS PORTB,4,0
000170 0012           00297         RETURN
                      00298         
000172 BE04           00299         BTFSC flags,7,0
000174 0012           00300         RETURN
                      00301         
000176 EC?? F???      00302         CALL SET_RECORDING
                      00303         
                      00304         
Warning[207]: Found label after column 1. (RECORD_PRESSED_LOOP)
00017A                00305         RECORD_PRESSED_LOOP
00017A A881           00306         BTFSS PORTB,4,0
00017C EF?? F???      00307         GOTO RECORD_PRESSED_LOOP
                      00308         
                      00309         ;MOVFF flags,PORTA
MPASM 5.86               JOYSTICK TO PWM.ASM   4-1-2022  0:39:49         PAGE  8


LOC  OBJECT CODE     LINE SOURCE TEXT
  VALUE

000180 EF?? F???      00310         GOTO MAIN_LOOP
                      00311         
Warning[207]: Found label after column 1. (PLAY_BUTTON_INTERRUPT)
000184                00312     PLAY_BUTTON_INTERRUPT
000184 92F2           00313         BCF INTCON,INT0IF,0
000186 EC?? F???      00314         CALL DEBOUNCE_LOOP
00018A B081           00315         BTFSC PORTB,0,0 ; if pushbutton is still pressed after debouncing loop then proceed, if not retu
                            rn
00018C 0012           00316         RETURN
                      00317         
00018E B804           00318         BTFSC flags,4,0
000190 0012           00319         RETURN
                      00320         
000192 8E04           00321         BSF flags,7,0
000194 0012           00322         RETURN
                      00323         
Warning[207]: Found label after column 1. (PLAY_RECORDING)
000196                00324     PLAY_RECORDING 
                      00325         ;CALL DISABLE_INTERRUPTS_EXCEPT_PWM
                      00326         
000196 0E01           00327         MOVLW 0x001
000198 6EE0           00328         MOVWF BSR,0  ; selecting bank 1 of the ram
                      00329         
                      00330         
00019A EE00 F040      00331         LFSR 0, Position_RAM_Notes
00019E EE10 F080      00332         LFSR 1, Position_RAM_Delay_L
0001A2 EE20 F0C0      00333         LFSR 2, Position_RAM_Delay_H
                      00334         
Warning[207]: Found label after column 1. (PLAY_LOOP)
0001A6                00335         PLAY_LOOP
0001A6 CFEF F002      00336             MOVFF INDF0, readL
0001AA CFE7 F007      00337             MOVFF INDF1, savedTimeL
0001AE CFDF F008      00338             MOVFF INDF2,savedTimeH
                      00339             ;MOVFF savedTimeL,LATA
                      00340             ;MOVFF savedTimeH,LATD
                      00341             
0001B2 2AE9           00342             INCF FSR0L,1
0001B4 2AE1           00343             INCF FSR1L,1
0001B6 2AD9           00344             INCF FSR2L,1
                      00345             
0001B8 0E08           00346             MOVLW .8
0001BA 6002           00347             CPFSLT readL,0
0001BC EF?? F???      00348             GOTO DONE_PLAYING
                      00349             
0001C0 C002 F003      00350             MOVFF readL,position
0001C4 EC?? F???      00351             CALL CONVERT_POS_TIME
                      00352             
0001C8 6A0C           00353             CLRF recordTimeL,0
0001CA 6A0D           00354             CLRF recordTimeH,0
                      00355             
Warning[207]: Found label after column 1. (DELAY_LOOP)
0001CC                00356             DELAY_LOOP
                      00357                 
MPASM 5.86               JOYSTICK TO PWM.ASM   4-1-2022  0:39:49         PAGE  9


LOC  OBJECT CODE     LINE SOURCE TEXT
  VALUE

0001CC C00D F001      00358                 MOVFF recordTimeH,readH
0001D0 C00C F002      00359                 MOVFF recordTimeL,readL
                      00360                 ;MOVFF readH,LATD
                      00361                 ;MOVFF savedTimeH,LATA
                      00362                 
                      00363                 
0001D4 5008           00364                 MOVF savedTimeH,0,0 ; 11101010
0001D6 6001           00365                 CPFSLT readH,0
0001D8 EF?? F???      00366                 GOTO GT_OR_EQ_DELAY
0001DC EF?? F???      00367                 GOTO DELAY_LOOP
                      00368 
Warning[207]: Found label after column 1. (GT_OR_EQ_DELAY)
0001E0                00369                 GT_OR_EQ_DELAY
                      00370                 ;BSF LATA,2,0
0001E0 6401           00371                 CPFSGT readH,0
0001E2 EF?? F???      00372                 GOTO EQ_DELAY
0001E6 EF?? F???      00373                 GOTO DONE_DELAY
                      00374 
Warning[207]: Found label after column 1. (EQ_DELAY)
0001EA                00375                 EQ_DELAY
                      00376                 ;BSF LATA,3,0
0001EA 5007           00377                 MOVF savedTimeL,0,0 ; 01100000
0001EC 6002           00378                 CPFSLT readL,0
0001EE EF?? F???      00379                 GOTO DONE_DELAY
0001F2 EF?? F???      00380                 GOTO DELAY_LOOP
                      00381 
Warning[207]: Found label after column 1. (DONE_DELAY)
0001F6                00382             DONE_DELAY
                      00383             ;MOVFF position, LATA
                      00384             ;BTG LATD,7,0
                      00385             
                      00386             
                      00387             
0001F6 EC?? F???      00388             CALL HIT_NOTE
                      00389             
                      00390             
                      00391 
0001FA EF?? F???      00392             GOTO PLAY_LOOP
                      00393         
Warning[207]: Found label after column 1. (DONE_PLAYING)
0001FE                00394         DONE_PLAYING
0001FE 9E04           00395         BCF flags,7,0
                      00396         
000200 EC?? F???      00397         CALL ENABLE_INTERRUPTS_EXCEPT_PWM ; re-enable interrupts
                      00398         
000204 0012           00399         RETURN
                      00400         
Warning[207]: Found label after column 1. (HIGH_RSI)
000206                00401     HIGH_RSI
000206 B0F0           00402         BTFSC INTCON3,INT1IF,0
000208 EC?? F???      00403         CALL CHANGE_MANUAL_MODE
00020C B2F0           00404         BTFSC INTCON3,INT2IF,0
00020E EC?? F???      00405         CALL CHANGE_MODE
MPASM 5.86               JOYSTICK TO PWM.ASM   4-1-2022  0:39:49         PAGE 10


LOC  OBJECT CODE     LINE SOURCE TEXT
  VALUE

000212 B2F2           00406         BTFSC INTCON,INT0IF,0
000214 EC?? F???      00407         CALL PLAY_BUTTON_INTERRUPT
000218 B4F2           00408         BTFSC INTCON, TMR0IF,0
00021A EF?? F???      00409         GOTO TMR0_INTERRUPT
                      00410         
                      00411         
00021E 0011           00412         RETFIE FAST
                      00413         
Warning[207]: Found label after column 1. (DISABLE_INTERRUPTS_EXCEPT_PWM)
000220                00414     DISABLE_INTERRUPTS_EXCEPT_PWM
000220 98F2           00415         BCF INTCON, INT0IE,0 ; enable INT0 interrupt
000222 96F0           00416         BCF INTCON3, INT1IE,0 ; enable INT1 interrupt
000224 98F0           00417         BCF INTCON3, INT2IE,0 ; enable INT2 interrupt
000226 0012           00418         RETURN
Warning[207]: Found label after column 1. (ENABLE_INTERRUPTS_EXCEPT_PWM)
000228                00419     ENABLE_INTERRUPTS_EXCEPT_PWM
000228 88F2           00420         BSF INTCON, INT0IE,0 ; enable INT0 interrupt
00022A 86F0           00421         BSF INTCON3, INT1IE,0 ; enable INT1 interrupt
00022C 88F0           00422         BSF INTCON3, INT2IE,0 ; enable INT2 interrupt
00022E 0012           00423         RETURN
                      00424         
Warning[207]: Found label after column 1. (INIT_INTERRUPTS)
000230                00425     INIT_INTERRUPTS
                      00426         ; Configure RB1 so it generates a High Priority Interrupt 
                      00427         ; when a falling edge is detected.
000230 9ED0           00428         BCF RCON,IPEN,0 ; no priorities so everything is high priority
000232 9EF1           00429         BCF INTCON2,RBPU,0 ; enable pull ups
000234 9CF1           00430         BCF INTCON2,INTEDG0,0 ; falling edge int1
000236 9AF1           00431         BCF INTCON2,INTEDG1,0 ; falling edge int1
000238 98F1           00432         BCF INTCON2,INTEDG2,0 ; falling edge int1
                      00433         
00023A 84F1           00434         BSF INTCON2, TMR0IP,0 ; set TMR0 interrupt as high priority
                      00435         
00023C 88F2           00436         BSF INTCON, INT0IE,0 ; enable INT0 interrupt
00023E 86F0           00437         BSF INTCON3, INT1IE,0 ; enable INT1 interrupt
000240 88F0           00438         BSF INTCON3, INT2IE,0 ; enable INT2 interrupt
000242 8EF2           00439         BSF INTCON, 7,0; enable global interrupts
000244 8CF2           00440         BSF INTCON, 6,0;
                      00441 
000246 0012           00442         RETURN
Warning[207]: Found label after column 1. (INIT_EUSART)
000248                00443     INIT_EUSART
                      00444         
000248 0E24           00445         MOVLW b'00100100' ; SYNCH -0 BRGH - 1 
00024A 6EAC           00446         MOVWF TXSTA,0
00024C 0E91           00447         MOVLW b'10010001'   ; RX9 - 0
00024E 6EAB           00448         MOVWF RCSTA,0
000250 0E48           00449         MOVLW b'01001000' ; BRG16 - 1
000252 6EB8           00450         MOVWF BAUDCON,0
000254 0ECF           00451         MOVLW .207       ; baud rate of 9600
000256 6EAF           00452         MOVWF SPBRG,0
                      00453         ;MOVLW b'00000000'
                      00454         ;MOVWF SPBRGH,0
MPASM 5.86               JOYSTICK TO PWM.ASM   4-1-2022  0:39:49         PAGE 11


LOC  OBJECT CODE     LINE SOURCE TEXT
  VALUE

000258 6AB0           00455         CLRF SPBRGH,0
00025A 0012           00456         RETURN
                      00457     
Warning[207]: Found label after column 1. (INIT_OSC)
00025C                00458     INIT_OSC
00025C 0E72           00459         MOVLW b'01110010'    ; 1MHz 1us
00025E 6ED3           00460         MOVWF   OSCCON,0 
000260 0E98           00461         MOVLW b'10011000' ; 16 bit timer - no prescaler 
000262 6ED5           00462         MOVWF T0CON,0
000264 0012           00463         RETURN
                      00464         
                      00465     
Warning[207]: Found label after column 1. (INIT_PORTS)
000266                00466     INIT_PORTS
000266 0E03           00467         MOVLW b'00000011'
000268 6EC2           00468         MOVWF ADCON0,0
00026A 0E0E           00469         MOVLW b'00001110'
00026C 6EC1           00470         MOVWF ADCON1,0
00026E 0E89           00471         MOVLW b'10001001'
000270 6EC0           00472         MOVWF ADCON2,0
000272 6A92           00473         CLRF TRISA,0
000274 8092           00474         BSF TRISA,0,0
000276 6A94           00475         CLRF TRISC,0
000278 8C94           00476         BSF TRISC,6,0
00027A 8E94           00477         BSF TRISC,7,0
00027C 6A95           00478         CLRF TRISD,0
00027E 0012           00479         RETURN
                      00480 
Warning[207]: Found label after column 1. (READ_VALUE)
000280                00481     READ_VALUE
000280 CFC4 F001      00482         MOVFF ADRESH,readH
000284 CFC3 F002      00483         MOVFF ADRESL,readL
000288 0012           00484         RETURN
                      00485         
Warning[207]: Found label after column 1. (DISPLAY_NOTE)
00028A                00486     DISPLAY_NOTE
00028A C003 FFE8      00487         MOVFF position, WREG
00028E 0F10           00488         ADDLW 0x10
000290 6EF6           00489         MOVWF TBLPTRL,0
000292 6AF7           00490         CLRF TBLPTRH,0
000294 6AF8           00491         CLRF TBLPTRU,0
                      00492         
000296 0008           00493         TBLRD*
000298 CFF5 FF8C      00494         MOVFF TABLAT,LATD
00029C 0012           00495         RETURN
                      00496         
                      00497         
Warning[207]: Found label after column 1. (CHECK_LEFT)
00029E                00498     CHECK_LEFT
                      00499         
                      00500         ; checking if < 100
00029E 0E01           00501         MOVLW .1
0002A0 6001           00502         CPFSLT readH,0
MPASM 5.86               JOYSTICK TO PWM.ASM   4-1-2022  0:39:49         PAGE 12


LOC  OBJECT CODE     LINE SOURCE TEXT
  VALUE

0002A2 0012           00503         RETURN
0002A4 0E64           00504         MOVLW LOW(.100)
0002A6 6002           00505         CPFSLT readL,0
0002A8 0012           00506         RETURN
                      00507         ; threshold for centre is left < 100
                      00508         
0002AA 0E00           00509         MOVLW .0
0002AC 5C03           00510         SUBWF position,0
0002AE A4D8           00511         BTFSS STATUS,Z,0
0002B0 0603           00512         DECF position,1
                      00513         
0002B2 8004           00514         BSF flags,0,0
                      00515         
0002B4 6A05           00516         CLRF timeNoteL,0
0002B6 6A06           00517         CLRF timeNoteH,0
0002B8 EC?? F???      00518         CALL CONVERT_POS_TIME
                      00519         
0002BC 0012           00520         RETURN
                      00521         
Warning[207]: Found label after column 1. (CHECK_RIGHT)
0002BE                00522     CHECK_RIGHT
                      00523         ;checking if > 900
0002BE 0E02           00524         MOVLW .2
0002C0 6401           00525         CPFSGT readH,0
0002C2 0012           00526         RETURN
0002C4 0E84           00527         MOVLW LOW(.900)
0002C6 6402           00528         CPFSGT readL,0
0002C8 0012           00529         RETURN
                      00530         
                      00531         ; threshold for centre is 900 < right
                      00532         
0002CA 0E07           00533         MOVLW .7
0002CC 5C03           00534         SUBWF position,0
0002CE A4D8           00535         BTFSS STATUS,Z,0
0002D0 2A03           00536         INCF position,1
0002D2 8004           00537         BSF flags,0,0
                      00538         
0002D4 6A05           00539         CLRF timeNoteL,0
0002D6 6A06           00540         CLRF timeNoteH,0
0002D8 EC?? F???      00541         CALL CONVERT_POS_TIME
                      00542         
0002DC 0012           00543         RETURN
                      00544         
Warning[207]: Found label after column 1. (CHECK_CENTRE)
0002DE                00545     CHECK_CENTRE
                      00546         ;checking if > 450
0002DE 0E01           00547         MOVLW .1
0002E0 6201           00548         CPFSEQ readH,0
0002E2 EF?? F???      00549         GOTO check2
0002E6 0EC8           00550         MOVLW .200
0002E8 6402           00551         CPFSGT readL,0
0002EA 0012           00552         RETURN
0002EC EF?? F???      00553         GOTO middle
MPASM 5.86               JOYSTICK TO PWM.ASM   4-1-2022  0:39:49         PAGE 13


LOC  OBJECT CODE     LINE SOURCE TEXT
  VALUE

                      00554         
                      00555         ; checking if < 550
Warning[207]: Found label after column 1. (check2)
0002F0                00556         check2
0002F0 0E02           00557         MOVLW .2
0002F2 6201           00558         CPFSEQ readH,0
0002F4 0012           00559         RETURN
0002F6 0E32           00560         MOVLW .50
0002F8 6002           00561         CPFSLT readL,0
0002FA 0012           00562         RETURN
                      00563         
                      00564         ; threshold for centre is 450< centre <550
Warning[207]: Found label after column 1. (middle)
0002FC                00565         middle
0002FC 9004           00566         BCF flags,0,0
                      00567         
0002FE 0012           00568         RETURN
                      00569         
Warning[207]: Found label after column 1. (CHECK_REC_TIME)
000300                00570     CHECK_REC_TIME
                      00571         ;checking if > 60000
                      00572         
                      00573         ;MOVFF readH,LATA
000300 0EEA           00574         MOVLW HIGH(.60000) ; 11101010
000302 600D           00575         CPFSLT recordTimeH,0
000304 EF?? F???      00576         GOTO GT_OR_EQ_60
000308 0012           00577         RETURN
                      00578         
Warning[207]: Found label after column 1. (GT_OR_EQ_60)
00030A                00579         GT_OR_EQ_60
                      00580         ;BSF LATA,2,0
00030A 640D           00581         CPFSGT recordTimeH,0
00030C EF?? F???      00582         GOTO EQ_60
000310 8A04           00583         BSF flags,5,0
000312 0012           00584         RETURN
                      00585         
Warning[207]: Found label after column 1. (EQ_60)
000314                00586         EQ_60
                      00587         ;BSF LATA,3,0
000314 0E60           00588         MOVLW LOW(.60000)  ; 01100000
000316 600C           00589         CPFSLT recordTimeL,0
000318 8A04           00590         BSF flags,5,0
                      00591         ;BSF LATA,4,0
00031A 0012           00592         RETURN
                      00593         
Warning[207]: Found label after column 1. (MAIN)
00031C                00594     MAIN
00031C EC?? F???      00595         CALL INIT_OSC
000320 EC?? F???      00596         CALL INIT_PORTS
000324 EC?? F???      00597         CALL CONVERT_POS_TIME
000328 EC?? F???      00598         CALL INIT_INTERRUPTS
00032C EC?? F???      00599         CALL INIT_EUSART
000330 8AF2           00600         BSF INTCON, TMR0IE,0
MPASM 5.86               JOYSTICK TO PWM.ASM   4-1-2022  0:39:49         PAGE 14


LOC  OBJECT CODE     LINE SOURCE TEXT
  VALUE

000332 EC?? F???      00601         CALL DISPLAY_NOTE
000336 EF?? F???      00602         GOTO MAIN_LOOP
                      00603         
Warning[207]: Found label after column 1. (MAIN_LOOP)
00033A                00604     MAIN_LOOP
                      00605         
00033A BE04           00606         BTFSC flags,7,0
00033C EC?? F???      00607         CALL PLAY_RECORDING
                      00608     
000340 A604           00609         BTFSS flags,3,0
000342 EC?? F???      00610         CALL MANUAL_LOOP
                      00611         
000346 B604           00612         BTFSC flags,3,0
000348 EC?? F???      00613         CALL AUTOMATIC_LOOP
                      00614         
00034C EF?? F???      00615         GOTO MAIN_LOOP
                      00616         
                      00617     
Warning[207]: Found label after column 1. (AUTOMATIC_LOOP)
000350                00618     AUTOMATIC_LOOP
000350 EC?? F???      00619         CALL ENABLE_INTERRUPTS_EXCEPT_PWM ; re-enable interrupts
                      00620         
                      00621         ; setting the color of the RGB LED
000354 968B           00622         BCF LATC,3,0 
000356 948B           00623         BCF LATC,2,0
000358 888B           00624         BSF LATC,4,0
                      00625         
Warning[207]: Found label after column 1. (WAIT_RX_AUTO)
00035A                00626         WAIT_RX_AUTO
                      00627             ;CALL CHECK_SERVOS
                      00628             
00035A BE04           00629             BTFSC flags,7,0
00035C EC?? F???      00630             CALL MAIN_LOOP
000360 A604           00631             BTFSS flags,3,0
000362 EF?? F???      00632             GOTO MAIN_LOOP
000366 AA9E           00633             BTFSS PIR1, RCIF, 0
000368 EF?? F???      00634             GOTO WAIT_RX_AUTO
00036C CFAE F002      00635         MOVFF RCREG,readL
                      00636         
000370 B2AB           00637         BTFSC RCSTA,OERR,0 
000372 EC?? F???      00638         CALL OVERRUN
                      00639         
000376 0E50           00640         MOVLW 'P'
000378 5C02           00641         SUBWF readL,0
00037A A4D8           00642         BTFSS STATUS,Z,0
00037C EF?? F???      00643         GOTO AUTOMATIC_LOOP
                      00644         
000380 EC?? F???      00645         CALL DISABLE_INTERRUPTS_EXCEPT_PWM ;disable interrupts
                      00646         
000384 0E4B           00647         MOVLW 'K'
000386 6EAD           00648         MOVWF TXREG,0
Warning[207]: Found label after column 1. (WAIT_TRANS_AUTO)
000388                00649         WAIT_TRANS_AUTO
MPASM 5.86               JOYSTICK TO PWM.ASM   4-1-2022  0:39:49         PAGE 15


LOC  OBJECT CODE     LINE SOURCE TEXT
  VALUE

000388 A2AC           00650             BTFSS TXSTA, 1, 0
00038A EF?? F???      00651             GOTO WAIT_TRANS_AUTO
                      00652             
                      00653         
                      00654         
Warning[207]: Found label after column 1. (WAIT_RX_AUTO_PLAY)
00038E                00655         WAIT_RX_AUTO_PLAY
                      00656             ;CALL CHECK_SERVOS
00038E AA9E           00657             BTFSS PIR1, RCIF, 0
000390 EF?? F???      00658             GOTO WAIT_RX_AUTO_PLAY
                      00659         
                      00660         
000394 CFAE F002      00661         MOVFF RCREG,readL ; contains the letter sent by the java interface
000398 0E53           00662         MOVLW 'S'
00039A 5C02           00663         SUBWF readL,0
00039C B4D8           00664         BTFSC STATUS,Z,0
00039E EF?? F???      00665         GOTO AUTOMATIC_LOOP
                      00666         
0003A2 B2AB           00667         BTFSC RCSTA,OERR,0 
0003A4 EC?? F???      00668         CALL OVERRUN
                      00669         
                      00670         
0003A8 6A05           00671         CLRF timeNoteL,0
0003AA 6A06           00672         CLRF timeNoteH,0
0003AC EC?? F???      00673         CALL CONVERT_Letter_Pos
                      00674         
                      00675         
0003B0 EC?? F???      00676         CALL HIT_NOTE
0003B4 EF?? F???      00677         GOTO WAIT_RX_AUTO_PLAY
0003B8 0012           00678         RETURN
                      00679         
                      00680         
Warning[207]: Found label after column 1. (MANUAL_LOOP)
0003BA                00681     MANUAL_LOOP
                      00682         ; setting the color of the RGB LED
0003BA EC?? F???      00683         CALL RECORD_PRESSED
                      00684         
                      00685         ;CALL CHECK_SERVOS
                      00686         
0003BE B804           00687         BTFSC flags,4,0
0003C0 EC?? F???      00688         CALL CHECK_REC_TIME
0003C4 BA04           00689         BTFSC flags,5,0 ; checks if 60 seconds have passed since the recording started
0003C6 EC?? F???      00690         CALL REC_OVER
                      00691         
0003CA B804           00692         BTFSC flags,4,0
0003CC EF?? F???      00693         GOTO REC_LEDS
0003D0 948B           00694         BCF LATC,2,0
0003D2 868B           00695         BSF LATC,3,0
0003D4 988B           00696         BCF LATC,4,0
0003D6 EF?? F???      00697         GOTO SELECT_MODE
                      00698         
Warning[207]: Found label after column 1. (REC_LEDS)
0003DA                00699         REC_LEDS
MPASM 5.86               JOYSTICK TO PWM.ASM   4-1-2022  0:39:49         PAGE 16


LOC  OBJECT CODE     LINE SOURCE TEXT
  VALUE

0003DA 848B           00700         BSF LATC,2,0
0003DC 968B           00701         BCF LATC,3,0
0003DE 988B           00702         BCF LATC,4,0
Warning[207]: Found label after column 1. (SELECT_MODE)
0003E0                00703         SELECT_MODE
0003E0 A204           00704         BTFSS flags,1,0
0003E2 EC?? F???      00705         CALL MANUAL_JOYSTICK
                      00706         
0003E6 B204           00707         BTFSC flags,1,0
0003E8 EC?? F???      00708         CALL MANUAL_JAVA
                      00709         
0003EC 0012           00710         RETURN
                      00711         
Warning[207]: Found label after column 1. (MANUAL_JOYSTICK)
0003EE                00712     MANUAL_JOYSTICK
0003EE 9A8B           00713         BCF LATC,5,0
                      00714         
                      00715         
0003F0 B681           00716         BTFSC PORTB,3,0
0003F2 EF?? F???      00717         GOTO HIT_NOT_PRESSED
                      00718         
0003F6 A404           00719         BTFSS flags,2,0
0003F8 EC?? F???      00720         CALL DEBOUNCE_LOOP
                      00721         
0003FC B681           00722         BTFSC PORTB,3,0 ; if pushbutton is still pressed after debouncing loop then proceed, if not retu
                            rn
0003FE EF?? F???      00723         GOTO HIT_NOT_PRESSED ; if not we havent been pressed
                      00724         
000402 B404           00725         BTFSC flags,2,0
000404 EF?? F???      00726         GOTO NO_HIT
                      00727         
000408 EC?? F???      00728         CALL HIT_NOTE
00040C 8404           00729         BSF flags,2,0
00040E EF?? F???      00730         GOTO NO_HIT
                      00731         
Warning[207]: Found label after column 1. (HIT_NOT_PRESSED)
000412                00732         HIT_NOT_PRESSED
000412 9404           00733         BCF flags,2,0
Warning[207]: Found label after column 1. (NO_HIT)
000414                00734         NO_HIT
                      00735         
000414 82C2           00736         BSF ADCON0,1,0 ;convert
Warning[207]: Found label after column 1. (JOYSTICK_INTERNAL_LOOP)
000416                00737         JOYSTICK_INTERNAL_LOOP
000416 B2C2           00738         BTFSC ADCON0,1,0
000418 EF?? F???      00739         GOTO JOYSTICK_INTERNAL_LOOP
                      00740         
00041C EC?? F???      00741         CALL READ_VALUE
000420 EC?? F???      00742         CALL CHECK_CENTRE
                      00743         
000424 A004           00744         BTFSS flags,0,0
000426 EC?? F???      00745         CALL CHECK_LEFT
                      00746         
MPASM 5.86               JOYSTICK TO PWM.ASM   4-1-2022  0:39:49         PAGE 17


LOC  OBJECT CODE     LINE SOURCE TEXT
  VALUE

00042A A004           00747         BTFSS flags,0,0
00042C EC?? F???      00748         CALL CHECK_RIGHT
                      00749         
                      00750         
000430 0012           00751         RETURN
                      00752         
                      00753         
                      00754         
Warning[207]: Found label after column 1. (MANUAL_JAVA)
000432                00755      MANUAL_JAVA
000432 8A8B           00756         BSF LATC,5,0
Warning[207]: Found label after column 1. (WAIT_RX)
000434                00757         WAIT_RX
                      00758             
000434 EC?? F???      00759             CALL RECORD_PRESSED
                      00760             
000438 BE04           00761             BTFSC flags,7,0
00043A EC?? F???      00762             CALL MAIN_LOOP
                      00763             
00043E B804           00764             BTFSC flags,4,0 ;
000440 EC?? F???      00765             CALL CHECK_REC_TIME
000444 BA04           00766             BTFSC flags,5,0 ; checks if 60 seconds have passed since the recording started
000446 EC?? F???      00767             CALL REC_OVER
                      00768             
00044A B604           00769             BTFSC flags,3,0 ; checks if mode has changed to automatic
00044C EF?? F???      00770             GOTO MAIN_LOOP
                      00771             
000450 A204           00772             BTFSS flags,1,0 ; checks if manual mode has changed to joystick
000452 EF?? F???      00773             GOTO MANUAL_LOOP
                      00774             
000456 AA9E           00775             BTFSS PIR1, RCIF, 0
000458 EF?? F???      00776             GOTO WAIT_RX
                      00777         
                      00778         ;BTG LATC,5,0
00045C CFAE F002      00779         MOVFF RCREG,readL ; contains the letter sent by the java interface
                      00780         ;MOVFF readL,LATD
                      00781         
000460 B2AB           00782         BTFSC RCSTA,OERR,0 
000462 EC?? F???      00783         CALL OVERRUN
                      00784         
000466 C002 FF89      00785         MOVFF readL,LATA
                      00786         ;CLRF timeNoteL,0
                      00787         ;CLRF timeNoteH,0
00046A EC?? F???      00788         CALL CONVERT_Letter_Pos
00046E EC?? F???      00789         CALL CONVERT_POS_TIME
                      00790         
                      00791         
                      00792         
000472 EC?? F???      00793         CALL HIT_NOTE
                      00794         
000476 0012           00795         RETURN
                      00796         
Warning[207]: Found label after column 1. (OVERRUN)
MPASM 5.86               JOYSTICK TO PWM.ASM   4-1-2022  0:39:49         PAGE 18


LOC  OBJECT CODE     LINE SOURCE TEXT
  VALUE

000478                00797     OVERRUN
000478 98AB           00798         BCF RCSTA,CREN,0
00047A 8004           00799         BSF CREN,0
00047C 0012           00800         RETURN
                      00801 
Warning[207]: Found label after column 1. (HIT_NOTE)
00047E                00802     HIT_NOTE
                      00803         
00047E EC?? F???      00804         CALL DISPLAY_NOTE
000482 B804           00805         BTFSC flags,4,0
000484 EC?? F???      00806         CALL SAVE_NOTE
                      00807         ;BTFSC flags,4,0
                      00808         
                      00809         
                      00810         
000488 8009           00811         BSF servoFlags,0,0
                      00812         
                      00813         ;BTFSC flags,4,0
                      00814         
00048A 6A0C           00815         CLRF recordTimeL,0
00048C 6A0D           00816         CLRF recordTimeH,0
                      00817         
                      00818         
00048E 0012           00819         RETURN
                      00820         
Warning[207]: Found label after column 1. (REC_OVER)
000490                00821     REC_OVER
                      00822     
000490 BC04           00823         BTFSC flags,6,0
000492 EC?? F???      00824         CALL SEND_STOP_JAVA
000496 9C04           00825         BCF flags,6,0
                      00826         
000498 0E80           00827         MOVLW b'10000000'
00049A 6EEF           00828         MOVWF INDF0,0
                      00829         
                      00830         
00049C 9804           00831         BCF flags,4,0
00049E 9A04           00832         BCF flags,5,0
                      00833         ;BSF LATD,7,0
                      00834         
0004A0 948B           00835         BCF LATC,2,0
0004A2 868B           00836         BSF LATC,3,0
0004A4 988B           00837         BCF LATC,4,0
                      00838         
0004A6 EE00 F040      00839         LFSR 0, Position_RAM_Notes
0004AA EE10 F080      00840         LFSR 1, Position_RAM_Delay_L
0004AE EE20 F0C0      00841         LFSR 2, Position_RAM_Delay_H
                      00842         
                      00843         
Warning[207]: Found label after column 1. (SEND_STOP_JAVA)
0004B2                00844     SEND_STOP_JAVA
                      00845         ;BSF LATD,7,0
0004B2 0E53           00846         MOVLW 'S'
MPASM 5.86               JOYSTICK TO PWM.ASM   4-1-2022  0:39:49         PAGE 19


LOC  OBJECT CODE     LINE SOURCE TEXT
  VALUE

0004B4 6EAD           00847         MOVWF TXREG,0
Warning[207]: Found label after column 1. (WAIT_TRANS_STOP_REC)
0004B6                00848         WAIT_TRANS_STOP_REC
0004B6 A2AC           00849             BTFSS TXSTA, 1, 0
0004B8 EF?? F???      00850             GOTO WAIT_TRANS_STOP_REC
0004BC 9C04           00851         BCF flags,6,0
0004BE 0012           00852         RETURN
                      00853         
Warning[207]: Found label after column 1. (SAVE_NOTE)
0004C0                00854     SAVE_NOTE
                      00855         
0004C0 EC?? F???      00856         CALL DISABLE_INTERRUPTS_EXCEPT_PWM ; disable interrupts
                      00857         ;MOVLW 0x001
                      00858         ;MOVWF BSR,0  ; selecting bank 1 of the ram
                      00859         
0004C4 C003 FFEF      00860         MOVFF position,INDF0
                      00861         
                      00862         
0004C8 C00C FFE7      00863         MOVFF recordTimeL,INDF1
                      00864         
                      00865         
0004CC C00D FFDF      00866         MOVFF recordTimeH,INDF2
                      00867         
                      00868         
0004D0 2AE9           00869         INCF FSR0L,1
0004D2 2AE1           00870         INCF FSR1L,1
0004D4 2AD9           00871         INCF FSR2L,1
                      00872         
0004D6 BC04           00873         BTFSC flags,6,0
0004D8 EC?? F???      00874         CALL SEND_NOTE    
                      00875             
                      00876         
0004DC EC?? F???      00877         CALL ENABLE_INTERRUPTS_EXCEPT_PWM ; re-enable interrupts
0004E0 0012           00878         RETURN
                      00879         
Warning[207]: Found label after column 1. (SEND_NOTE)
0004E2                00880     SEND_NOTE
                      00881         ;BTG LATD,7,0
                      00882         
0004E2 EC?? F???      00883         CALL CONVERT_POS_TIME
0004E6 C00E FF89      00884         MOVFF noteLetter,LATA
0004EA C00E FFAD      00885         MOVFF noteLetter,TXREG
                      00886         
0004EE 9AF2           00887         BCF INTCON, TMR0IE,0
Warning[207]: Found label after column 1. (WAIT_TRANS_NOTE_LETTER)
0004F0                00888         WAIT_TRANS_NOTE_LETTER
                      00889             
0004F0 A2AC           00890             BTFSS TXSTA, 1, 0
0004F2 EF?? F???      00891             GOTO WAIT_TRANS_NOTE_LETTER
                      00892         
0004F6 8AF2           00893         BSF INTCON, TMR0IE,0    
                      00894         
                      00895         ;MOVFF recordTimeL,LATA
MPASM 5.86               JOYSTICK TO PWM.ASM   4-1-2022  0:39:49         PAGE 20


LOC  OBJECT CODE     LINE SOURCE TEXT
  VALUE

0004F8 C00C FFAD      00896         MOVFF recordTimeL, TXREG
0004FC 9AF2           00897         BCF INTCON, TMR0IE,0
Warning[207]: Found label after column 1. (WAIT_TRANS_DELAY_L)
0004FE                00898         WAIT_TRANS_DELAY_L
0004FE A2AC           00899             BTFSS TXSTA, 1, 0
000500 EF?? F???      00900             GOTO WAIT_TRANS_DELAY_L
000504 8AF2           00901         BSF INTCON, TMR0IE,0   
                      00902         
                      00903         ;MOVFF recordTimeH,LATA    
000506 C00D FFAD      00904         MOVFF recordTimeH, TXREG
00050A 9AF2           00905         BCF INTCON, TMR0IE,0
Warning[207]: Found label after column 1. (WAIT_TRANS_DELAY_H)
00050C                00906         WAIT_TRANS_DELAY_H
00050C A2AC           00907             BTFSS TXSTA, 1, 0
00050E EF?? F???      00908             GOTO WAIT_TRANS_DELAY_H
000512 8AF2           00909         BSF INTCON, TMR0IE,0     
000514 0012           00910         RETURN
                      00911         
Warning[207]: Found label after column 1. (CONVERT_POS_TIME)
000516                00912     CONVERT_POS_TIME
000516 0E00           00913         MOVLW .0
000518 5C03           00914         SUBWF position,0
00051A B4D8           00915         BTFSC STATUS,Z,0
00051C EC?? F???      00916         CALL SET_NOTE_C
                      00917         
000520 0E01           00918         MOVLW .1
000522 5C03           00919         SUBWF position,0
000524 B4D8           00920         BTFSC STATUS,Z,0
000526 EC?? F???      00921         CALL SET_NOTE_D
                      00922         
00052A 0E02           00923         MOVLW .2
00052C 5C03           00924         SUBWF position,0
00052E B4D8           00925         BTFSC STATUS,Z,0
000530 EC?? F???      00926         CALL SET_NOTE_E
                      00927         
000534 0E03           00928         MOVLW .3
000536 5C03           00929         SUBWF position,0
000538 B4D8           00930         BTFSC STATUS,Z,0
00053A EC?? F???      00931         CALL SET_NOTE_F
                      00932         
00053E 0E04           00933         MOVLW .4
000540 5C03           00934         SUBWF position,0
000542 B4D8           00935         BTFSC STATUS,Z,0
000544 EC?? F???      00936         CALL SET_NOTE_G
                      00937         
000548 0E05           00938         MOVLW .5
00054A 5C03           00939         SUBWF position,0
00054C B4D8           00940         BTFSC STATUS,Z,0
00054E EC?? F???      00941         CALL SET_NOTE_A
                      00942         
000552 0E06           00943         MOVLW .6
000554 5C03           00944         SUBWF position,0
000556 B4D8           00945         BTFSC STATUS,Z,0
MPASM 5.86               JOYSTICK TO PWM.ASM   4-1-2022  0:39:49         PAGE 21


LOC  OBJECT CODE     LINE SOURCE TEXT
  VALUE

000558 EC?? F???      00946         CALL SET_NOTE_B
                      00947         
00055C 0E07           00948         MOVLW .7
00055E 5C03           00949         SUBWF position,0
000560 B4D8           00950         BTFSC STATUS,Z,0
000562 EC?? F???      00951         CALL SET_NOTE_C2
000566 0012           00952         RETURN
                      00953         
Warning[207]: Found label after column 1. (CONVERT_Letter_Pos)
000568                00954     CONVERT_Letter_Pos
000568 0E43           00955         MOVLW 'C'       ; proteus reads the eusart input as b'1111111' or .255
00056A 5C02           00956         SUBWF readL,0
00056C B4D8           00957         BTFSC STATUS,Z,0
00056E EC?? F???      00958         CALL SET_NOTE_C
                      00959         
000572 0E44           00960         MOVLW 'D'
000574 5C02           00961         SUBWF readL,0
000576 B4D8           00962         BTFSC STATUS,Z,0
000578 EC?? F???      00963         CALL SET_NOTE_D
                      00964         
00057C 0E45           00965         MOVLW 'E'
00057E 5C02           00966         SUBWF readL,0
000580 B4D8           00967         BTFSC STATUS,Z,0
000582 EC?? F???      00968         CALL SET_NOTE_E
                      00969         
000586 0E46           00970         MOVLW 'F'
000588 5C02           00971         SUBWF readL,0
00058A B4D8           00972         BTFSC STATUS,Z,0
00058C EC?? F???      00973         CALL SET_NOTE_F
                      00974         
000590 0E47           00975         MOVLW 'G'
000592 5C02           00976         SUBWF readL,0
000594 B4D8           00977         BTFSC STATUS,Z,0
000596 EC?? F???      00978         CALL SET_NOTE_G
                      00979         
00059A 0E41           00980         MOVLW 'A'
00059C 5C02           00981         SUBWF readL,0
00059E B4D8           00982         BTFSC STATUS,Z,0
0005A0 EC?? F???      00983         CALL SET_NOTE_A
                      00984         
0005A4 0E42           00985         MOVLW 'B'
0005A6 5C02           00986         SUBWF readL,0
0005A8 B4D8           00987         BTFSC STATUS,Z,0
0005AA EC?? F???      00988         CALL SET_NOTE_B
                      00989         
0005AE 0E63           00990         MOVLW 'c'
0005B0 5C02           00991         SUBWF readL,0
0005B2 B4D8           00992         BTFSC STATUS,Z,0
0005B4 EC?? F???      00993         CALL SET_NOTE_C2
0005B8 0012           00994         RETURN
                      00995         
Warning[207]: Found label after column 1. (SET_NOTE_C)
0005BA                00996     SET_NOTE_C
MPASM 5.86               JOYSTICK TO PWM.ASM   4-1-2022  0:39:49         PAGE 22


LOC  OBJECT CODE     LINE SOURCE TEXT
  VALUE

0005BA 0E43           00997         MOVLW 'C'
0005BC 6E0E           00998         MOVWF noteLetter,0
0005BE 0E00           00999         MOVLW .0
0005C0 6E03           01000         MOVWF position,0
0005C2 0012           01001         RETURN
                      01002         
Warning[207]: Found label after column 1. (SET_NOTE_D)
0005C4                01003     SET_NOTE_D
0005C4 0E44           01004         MOVLW 'D'
0005C6 6E0E           01005         MOVWF noteLetter,0
0005C8 0E01           01006         MOVLW .1
0005CA 6E03           01007         MOVWF position,0
0005CC 0012           01008         RETURN
Warning[207]: Found label after column 1. (SET_NOTE_E)
0005CE                01009     SET_NOTE_E
0005CE 0E45           01010         MOVLW 'E'
0005D0 6E0E           01011         MOVWF noteLetter,0
0005D2 0E02           01012         MOVLW .2
0005D4 6E03           01013         MOVWF position,0
0005D6 0012           01014         RETURN
                      01015         
Warning[207]: Found label after column 1. (SET_NOTE_F)
0005D8                01016     SET_NOTE_F
0005D8 0E46           01017         MOVLW 'F'
0005DA 6E0E           01018         MOVWF noteLetter,0
0005DC 0E03           01019         MOVLW .3
0005DE 6E03           01020         MOVWF position,0
0005E0 0012           01021         RETURN
Warning[207]: Found label after column 1. (SET_NOTE_G)
0005E2                01022     SET_NOTE_G
0005E2 0E47           01023         MOVLW 'G'
0005E4 6E0E           01024         MOVWF noteLetter,0
0005E6 0E04           01025         MOVLW .4
0005E8 6E03           01026         MOVWF position,0
0005EA 0012           01027         RETURN
Warning[207]: Found label after column 1. (SET_NOTE_A)
0005EC                01028     SET_NOTE_A
0005EC 0E41           01029         MOVLW 'A'
0005EE 6E0E           01030         MOVWF noteLetter,0
0005F0 0E05           01031         MOVLW .5
0005F2 6E03           01032         MOVWF position,0
0005F4 0012           01033         RETURN
Warning[207]: Found label after column 1. (SET_NOTE_B)
0005F6                01034     SET_NOTE_B
0005F6 0E42           01035         MOVLW 'B'
0005F8 6E0E           01036         MOVWF noteLetter,0
0005FA 0E06           01037         MOVLW .6
0005FC 6E03           01038         MOVWF position,0
0005FE 0012           01039         RETURN
                      01040         
Warning[207]: Found label after column 1. (SET_NOTE_C2)
000600                01041     SET_NOTE_C2
000600 0E63           01042         MOVLW 'c'
MPASM 5.86               JOYSTICK TO PWM.ASM   4-1-2022  0:39:49         PAGE 23


LOC  OBJECT CODE     LINE SOURCE TEXT
  VALUE

000602 6E0E           01043         MOVWF noteLetter,0
000604 0E07           01044         MOVLW .7
000606 6E03           01045         MOVWF position,0
000608 0012           01046         RETURN
                      01047     
Warning[205]: Found directive in column 1. (END)
                      01048 END
MPASM 5.86               JOYSTICK TO PWM.ASM   4-1-2022  0:39:49         PAGE 24


SYMBOL TABLE
  LABEL                             VALUE 

A                                 00000000
ABDEN                             00000000
ABDOVF                            00000007
ACCESS                            00000000
ACKDT                             00000005
ACKEN                             00000004
ACKSTAT                           00000006
ACQT0                             00000003
ACQT1                             00000004
ACQT2                             00000005
ADCON0                            00000FC2
ADCON1                            00000FC1
ADCON2                            00000FC0
ADCS0                             00000000
ADCS1                             00000001
ADCS2                             00000002
ADDEN                             00000003
ADEN                              00000003
ADFM                              00000007
ADIE                              00000006
ADIF                              00000006
ADIP                              00000006
ADMSK1                            00000001
ADMSK2                            00000002
ADMSK3                            00000003
ADMSK4                            00000004
ADMSK5                            00000005
ADON                              00000000
ADRES                             00000FC3
ADRESH                            00000FC4
ADRESL                            00000FC3
AN0                               00000000
AN1                               00000001
AN10                              00000001
AN11                              00000004
AN12                              00000000
AN2                               00000002
AN3                               00000003
AN4                               00000005
AN5                               00000000
AN6                               00000001
AN7                               00000002
AN8                               00000002
AN9                               00000003
ASK_JAVA                          00000124
AUTOMATIC_LOOP                    00000350
BANKED                            00000001
BAUDCON                           00000FB8
BAUDCTL                           00000FB8
BCLIE                             00000003
BCLIF                             00000003
BCLIP                             00000003
BF                                00000000
MPASM 5.86               JOYSTICK TO PWM.ASM   4-1-2022  0:39:49         PAGE 25


SYMBOL TABLE
  LABEL                             VALUE 

BGST                              00000005
BOR                               00000000
BRG16                             00000003
BRGH                              00000002
BSR                               00000FE0
C                                 00000000
C1INV                             00000004
C1N                               00000000
C1OUT_CMCON                       00000006
C1OUT_PORTA                       00000004
C1P                               00000003
C2INV                             00000005
C2N                               00000001
C2OUT_CMCON                       00000007
C2OUT_PORTA                       00000005
C2P                               00000002
CCP1                              00000002
CCP1CON                           00000FBD
CCP1IE                            00000002
CCP1IF                            00000002
CCP1IP                            00000002
CCP1M0                            00000000
CCP1M1                            00000001
CCP1M2                            00000002
CCP1M3                            00000003
CCP1X                             00000005
CCP1Y                             00000004
CCP2CON                           00000FBA
CCP2IE                            00000000
CCP2IF                            00000000
CCP2IP                            00000000
CCP2M0                            00000000
CCP2M1                            00000001
CCP2M2                            00000002
CCP2M3                            00000003
CCP2X                             00000005
CCP2Y                             00000004
CCP2_PORTB                        00000003
CCP2_PORTC                        00000001
CCPR1                             00000FBE
CCPR1H                            00000FBF
CCPR1L                            00000FBE
CCPR2                             00000FBB
CCPR2H                            00000FBC
CCPR2L                            00000FBB
CFGS                              00000006
CHANGE_MANUAL_MODE                000000CC
CHANGE_MODE                       000000E0
CHECK_CENTRE                      000002DE
CHECK_LEFT                        0000029E
CHECK_REC_TIME                    00000300
CHECK_RIGHT                       000002BE
CHECK_SERVO_X                     0000003E
MPASM 5.86               JOYSTICK TO PWM.ASM   4-1-2022  0:39:49         PAGE 26


SYMBOL TABLE
  LABEL                             VALUE 

CHECK_SERVO_Y                     0000006A
CHS0                              00000002
CHS1                              00000003
CHS2                              00000004
CHS3                              00000005
CIS                               00000003
CK                                00000006
CKE                               00000006
CKP                               00000004
CLKI                              00000007
CLKO                              00000006
CM0                               00000000
CM1                               00000001
CM2                               00000002
CMCON                             00000FB4
CMIE                              00000006
CMIF                              00000006
CMIP                              00000006
CONVERT_Letter_Pos                00000568
CONVERT_POS_TIME                  00000516
COUNT_X                           0000005A
COUNT_Y                           0000008E
CREN                              00000004
CS                                00000002
CSRC                              00000007
CVR0                              00000000
CVR1                              00000001
CVR2                              00000002
CVR3                              00000003
CVRCON                            00000FB5
CVREF                             00000002
CVREN                             00000007
CVROE                             00000006
CVRR                              00000005
CVRSS                             00000004
D                                 00000005
DC                                00000001
DC1B0                             00000004
DC1B1                             00000005
DC2B0                             00000004
DC2B1                             00000005
DDRA                              TRISA
DDRB                              TRISB
DDRC                              TRISC
DDRD                              TRISD
DDRE                              TRISE
DEBOUNCE_LOOP                     000000B6
DELAY_LOOP                        000001CC
DISABLE_INTERRUPTS_EXCEPT_PWM     00000220
DISPLAY_NOTE                      0000028A
DONE                              00000001
DONE_DELAY                        000001F6
DONE_PLAYING                      000001FE
MPASM 5.86               JOYSTICK TO PWM.ASM   4-1-2022  0:39:49         PAGE 27


SYMBOL TABLE
  LABEL                             VALUE 

D_A                               00000005
D_NOT_A                           00000005
ECCP1AS                           00000FB6
ECCP1CON                          00000FBD
ECCP1DEL                          00000FB7
ECCPAS0                           00000004
ECCPAS1                           00000005
ECCPAS2                           00000006
ECCPASE                           00000007
EEADR                             00000FA9
EECON1                            00000FA6
EECON2                            00000FA7
EEDATA                            00000FA8
EEIE                              00000004
EEIF                              00000004
EEIP                              00000004
EEPGD                             00000007
ENABLE_INTERRUPTS_EXCEPT_PWM      00000228
END_SERVO_Y                       0000009E
EQ_60                             00000314
EQ_DELAY                          000001EA
FAST                              00000001
FERR                              00000002
FLT0                              00000000
FLTS                              00000002
FREE                              00000004
FSR0                              00000000
FSR0H                             00000FEA
FSR0L                             00000FE9
FSR1                              00000001
FSR1H                             00000FE2
FSR1L                             00000FE1
FSR2                              00000002
FSR2H                             00000FDA
FSR2L                             00000FD9
GCEN                              00000007
GIE                               00000007
GIEH                              00000007
GIEL                              00000006
GIE_GIEH                          00000007
GO                                00000001
GO_DONE                           00000001
GO_NOT_DONE                       00000001
GT_OR_EQ_60                       0000030A
GT_OR_EQ_DELAY                    000001E0
HIGH_RSI                          00000206
HIT_NOTE                          0000047E
HIT_NOT_PRESSED                   00000412
HLVDCON                           00000FD2
HLVDEN                            00000004
HLVDIE                            00000002
HLVDIF                            00000002
HLVDIN                            00000005
MPASM 5.86               JOYSTICK TO PWM.ASM   4-1-2022  0:39:49         PAGE 28


SYMBOL TABLE
  LABEL                             VALUE 

HLVDIP                            00000002
HLVDL0                            00000000
HLVDL1                            00000001
HLVDL2                            00000002
HLVDL3                            00000003
Hit_Counter                       00000022
IBF                               00000007
IBOV                              00000005
IDLEN                             00000007
INDF0                             00000FEF
INDF1                             00000FE7
INDF2                             00000FDF
INIT_EUSART                       00000248
INIT_INTERRUPTS                   00000230
INIT_OSC                          0000025C
INIT_PORTS                        00000266
INNER_BOUNCE_LOOP                 000000BA
INT0                              00000000
INT0E                             00000004
INT0F                             00000001
INT0IE                            00000004
INT0IF                            00000001
INT1                              00000001
INT1E                             00000003
INT1F                             00000000
INT1IE                            00000003
INT1IF                            00000000
INT1IP                            00000006
INT1P                             00000006
INT2                              00000002
INT2E                             00000004
INT2F                             00000001
INT2IE                            00000004
INT2IF                            00000001
INT2IP                            00000007
INT2P                             00000007
INTCON                            00000FF2
INTCON2                           00000FF1
INTCON3                           00000FF0
INTEDG0                           00000006
INTEDG1                           00000005
INTEDG2                           00000004
INTSRC                            00000007
IOFS                              00000002
IPEN                              00000007
IPR1                              00000F9F
IPR2                              00000FA2
IRCF0                             00000004
IRCF1                             00000005
IRCF2                             00000006
IRVST                             00000005
JOYSTICK_INTERNAL_LOOP            00000416
KBI0                              00000004
MPASM 5.86               JOYSTICK TO PWM.ASM   4-1-2022  0:39:49         PAGE 29


SYMBOL TABLE
  LABEL                             VALUE 

KBI1                              00000005
KBI2                              00000006
KBI3                              00000007
LATA                              00000F89
LATA0                             00000000
LATA1                             00000001
LATA2                             00000002
LATA3                             00000003
LATA4                             00000004
LATA5                             00000005
LATA6                             00000006
LATA7                             00000007
LATB                              00000F8A
LATB0                             00000000
LATB1                             00000001
LATB2                             00000002
LATB3                             00000003
LATB4                             00000004
LATB5                             00000005
LATB6                             00000006
LATB7                             00000007
LATC                              00000F8B
LATC0                             00000000
LATC1                             00000001
LATC2                             00000002
LATC3                             00000003
LATC4                             00000004
LATC5                             00000005
LATC6                             00000006
LATC7                             00000007
LATD                              00000F8C
LATD0                             00000000
LATD1                             00000001
LATD2                             00000002
LATD3                             00000003
LATD4                             00000004
LATD5                             00000005
LATD6                             00000006
LATD7                             00000007
LATE                              00000F8D
LATE0                             00000000
LATE1                             00000001
LATE2                             00000002
LVDCON                            00000FD2
LVDEN                             00000004
LVDIE                             00000002
LVDIF                             00000002
LVDIP                             00000002
LVDL0                             00000000
LVDL1                             00000001
LVDL2                             00000002
LVDL3                             00000003
LVV0                              00000000
MPASM 5.86               JOYSTICK TO PWM.ASM   4-1-2022  0:39:49         PAGE 30


SYMBOL TABLE
  LABEL                             VALUE 

LVV1                              00000001
LVV2                              00000002
LVV3                              00000003
MAIN                              0000031C
MAIN_LOOP                         0000033A
MANUAL_JAVA                       00000432
MANUAL_JOYSTICK                   000003EE
MANUAL_LOOP                       000003BA
MCLR                              00000003
N                                 00000004
NEW_RECORDING                     00000144
NOT_A                             00000005
NOT_ADDRESS                       00000005
NOT_BOR                           00000000
NOT_CS                            00000002
NOT_DONE                          00000001
NOT_MCLR                          00000003
NOT_PD                            00000002
NOT_POR                           00000001
NOT_RBPU                          00000007
NOT_RD                            00000000
NOT_RI                            00000004
NOT_SS                            00000005
NOT_T1SYNC                        00000002
NOT_T3SYNC                        00000002
NOT_TO                            00000003
NOT_W                             00000002
NOT_WR                            00000001
NOT_WRITE                         00000002
NO_HIT                            00000414
OBF                               00000006
OERR                              00000001
OLD_REC                           00000106
OSC1                              00000007
OSC2                              00000006
OSCCON                            00000FD3
OSCFIE                            00000007
OSCFIF                            00000007
OSCFIP                            00000007
OSCTUNE                           00000F9B
OSTS                              00000003
OV                                00000003
OVERRUN                           00000478
P                                 00000004
P1A                               00000002
P1B                               00000005
P1C                               00000006
P1D                               00000007
P1M0                              00000006
P1M1                              00000007
PC                                00000FF9
PCFG0                             00000000
PCFG1                             00000001
MPASM 5.86               JOYSTICK TO PWM.ASM   4-1-2022  0:39:49         PAGE 31


SYMBOL TABLE
  LABEL                             VALUE 

PCFG2                             00000002
PCFG3                             00000003
PCL                               00000FF9
PCLATH                            00000FFA
PCLATU                            00000FFB
PD                                00000002
PDC0                              00000000
PDC1                              00000001
PDC2                              00000002
PDC3                              00000003
PDC4                              00000004
PDC5                              00000005
PDC6                              00000006
PEIE                              00000006
PEIE_GIEL                         00000006
PEN                               00000002
PGC                               00000006
PGD                               00000007
PGM                               00000005
PIE1                              00000F9D
PIE2                              00000FA0
PIR1                              00000F9E
PIR2                              00000FA1
PLAY_BUTTON_INTERRUPT             00000184
PLAY_LOOP                         000001A6
PLAY_RECORDING                    00000196
PLLEN                             00000006
PLUSW0                            00000FEB
PLUSW1                            00000FE3
PLUSW2                            00000FDB
POR                               00000001
PORTA                             00000F80
PORTB                             00000F81
PORTC                             00000F82
PORTD                             00000F83
PORTE                             00000F84
POSTDEC0                          00000FED
POSTDEC1                          00000FE5
POSTDEC2                          00000FDD
POSTINC0                          00000FEE
POSTINC1                          00000FE6
POSTINC2                          00000FDE
PR2                               00000FCB
PREINC0                           00000FEC
PREINC1                           00000FE4
PREINC2                           00000FDC
PROD                              00000FF3
PRODH                             00000FF4
PRODL                             00000FF3
PRSEN                             00000007
PSA                               00000003
PSP0                              00000000
PSP1                              00000001
MPASM 5.86               JOYSTICK TO PWM.ASM   4-1-2022  0:39:49         PAGE 32


SYMBOL TABLE
  LABEL                             VALUE 

PSP2                              00000002
PSP3                              00000003
PSP4                              00000004
PSP5                              00000005
PSP6                              00000006
PSP7                              00000007
PSPIE                             00000007
PSPIF                             00000007
PSPIP                             00000007
PSPMODE                           00000004
PSSAC0                            00000002
PSSAC1                            00000003
PSSBD0                            00000000
PSSBD1                            00000001
PWM1CON                           00000FB7
Position_RAM_Delay_H              000000C0
Position_RAM_Delay_L              00000080
Position_RAM_Notes                00000040
R                                 00000002
RA0                               00000000
RA1                               00000001
RA2                               00000002
RA3                               00000003
RA4                               00000004
RA5                               00000005
RA6                               00000006
RA7                               00000007
RB0                               00000000
RB1                               00000001
RB2                               00000002
RB3                               00000003
RB4                               00000004
RB5                               00000005
RB6                               00000006
RB7                               00000007
RBIE                              00000003
RBIF                              00000000
RBIP                              00000000
RBPU                              00000007
RC0                               00000000
RC1                               00000001
RC2                               00000002
RC3                               00000003
RC4                               00000004
RC5                               00000005
RC6                               00000006
RC7                               00000007
RCEN                              00000003
RCIDL                             00000006
RCIE                              00000005
RCIF                              00000005
RCIP                              00000005
RCMT                              00000006
MPASM 5.86               JOYSTICK TO PWM.ASM   4-1-2022  0:39:49         PAGE 33


SYMBOL TABLE
  LABEL                             VALUE 

RCON                              00000FD0
RCREG                             00000FAE
RCSTA                             00000FAB
RD                                00000000
RD0                               00000000
RD1                               00000001
RD16                              00000007
RD2                               00000002
RD3                               00000003
RD4                               00000004
RD5                               00000005
RD6                               00000006
RD7                               00000007
RE0                               00000000
RE1                               00000001
RE2                               00000002
RE3                               00000003
READ_VALUE                        00000280
RECORD_PRESSED                    00000166
RECORD_PRESSED_LOOP               0000017A
REC_LEDS                          000003DA
REC_OVER                          00000490
RI                                00000004
RSEN                              00000001
RX                                00000007
RX9                               00000006
RX9D                              00000000
RXDTP                             00000005
R_NOT_W                           00000002
R_W                               00000002
S                                 00000003
SAVE_NOTE                         000004C0
SBOREN                            00000006
SCK                               00000003
SCKP                              00000004
SCL                               00000003
SCS0                              00000000
SCS1                              00000001
SDA                               00000004
SDI                               00000004
SDO                               00000005
SELECT_MODE                       000003E0
SEN                               00000000
SENDB                             00000003
SEND_NOTE                         000004E2
SEND_STOP_JAVA                    000004B2
SERVO_LOOP_X                      00000048
SERVO_LOOP_Y                      00000074
SERVO_X_COUNT_LOOP                0000005C
SERVO_Y_COUNT_LOOP                00000090
SET_NOTE_A                        000005EC
SET_NOTE_B                        000005F6
SET_NOTE_C                        000005BA
MPASM 5.86               JOYSTICK TO PWM.ASM   4-1-2022  0:39:49         PAGE 34


SYMBOL TABLE
  LABEL                             VALUE 

SET_NOTE_C2                       00000600
SET_NOTE_D                        000005C4
SET_NOTE_E                        000005CE
SET_NOTE_F                        000005D8
SET_NOTE_G                        000005E2
SET_RECORDING                     000000F6
SMP                               00000007
SP0                               00000000
SP1                               00000001
SP2                               00000002
SP3                               00000003
SP4                               00000004
SPBRG                             00000FAF
SPBRGH                            00000FB0
SPEN                              00000007
SREN                              00000005
SSPADD                            00000FC8
SSPBUF                            00000FC9
SSPCON1                           00000FC6
SSPCON2                           00000FC5
SSPEN                             00000005
SSPIE                             00000003
SSPIF                             00000003
SSPIP                             00000003
SSPM0                             00000000
SSPM1                             00000001
SSPM2                             00000002
SSPM3                             00000003
SSPOV                             00000006
SSPSTAT                           00000FC7
STATUS                            00000FD8
STILL_HITTING                     000000B2
STKFUL                            00000007
STKOVF                            00000007
STKPTR                            00000FFC
STKUNF                            00000006
SWDTE                             00000000
SWDTEN                            00000000
SYNC                              00000004
T016BIT                           00000006
T08BIT                            00000006
T0CKI                             00000004
T0CON                             00000FD5
T0CS                              00000005
T0IE                              00000005
T0IF                              00000002
T0PS0                             00000000
T0PS1                             00000001
T0PS2                             00000002
T0SE                              00000004
T13CKI                            00000000
T1CKI                             00000000
T1CKPS0                           00000004
MPASM 5.86               JOYSTICK TO PWM.ASM   4-1-2022  0:39:49         PAGE 35


SYMBOL TABLE
  LABEL                             VALUE 

T1CKPS1                           00000005
T1CON                             00000FCD
T1OSCEN                           00000003
T1OSI                             00000001
T1OSO                             00000000
T1RUN                             00000006
T1SYNC                            00000002
T2CKPS0                           00000000
T2CKPS1                           00000001
T2CON                             00000FCA
T2OUTPS0                          00000003
T2OUTPS1                          00000004
T2OUTPS2                          00000005
T2OUTPS3                          00000006
T3CCP1                            00000003
T3CCP2                            00000006
T3CKPS0                           00000004
T3CKPS1                           00000005
T3CON                             00000FB1
T3SYNC                            00000002
TABLAT                            00000FF5
TABLE7s                           00000010
TBLPTR                            00000FF6
TBLPTRH                           00000FF7
TBLPTRL                           00000FF6
TBLPTRU                           00000FF8
TMR0                              00000FD6
TMR0H                             00000FD7
TMR0IE                            00000005
TMR0IF                            00000002
TMR0IP                            00000002
TMR0L                             00000FD6
TMR0ON                            00000007
TMR0_INTERRUPT                    0000001A
TMR1                              00000FCE
TMR1CS                            00000001
TMR1H                             00000FCF
TMR1IE                            00000000
TMR1IF                            00000000
TMR1IP                            00000000
TMR1L                             00000FCE
TMR1ON                            00000000
TMR2                              00000FCC
TMR2IE                            00000001
TMR2IF                            00000001
TMR2IP                            00000001
TMR2ON                            00000002
TMR3                              00000FB2
TMR3CS                            00000001
TMR3H                             00000FB3
TMR3IE                            00000001
TMR3IF                            00000001
TMR3IP                            00000001
MPASM 5.86               JOYSTICK TO PWM.ASM   4-1-2022  0:39:49         PAGE 36


SYMBOL TABLE
  LABEL                             VALUE 

TMR3L                             00000FB2
TMR3ON                            00000000
TO                                00000003
TOS                               00000FFD
TOSH                              00000FFE
TOSL                              00000FFD
TOSU                              00000FFF
TOUTPS0                           00000003
TOUTPS1                           00000004
TOUTPS2                           00000005
TOUTPS3                           00000006
TRISA                             00000F92
TRISA0                            00000000
TRISA1                            00000001
TRISA2                            00000002
TRISA3                            00000003
TRISA4                            00000004
TRISA5                            00000005
TRISA6                            00000006
TRISA7                            00000007
TRISB                             00000F93
TRISB0                            00000000
TRISB1                            00000001
TRISB2                            00000002
TRISB3                            00000003
TRISB4                            00000004
TRISB5                            00000005
TRISB6                            00000006
TRISB7                            00000007
TRISC                             00000F94
TRISC0                            00000000
TRISC1                            00000001
TRISC2                            00000002
TRISC3                            00000003
TRISC4                            00000004
TRISC5                            00000005
TRISC6                            00000006
TRISC7                            00000007
TRISD                             00000F95
TRISD0                            00000000
TRISD1                            00000001
TRISD2                            00000002
TRISD3                            00000003
TRISD4                            00000004
TRISD5                            00000005
TRISD6                            00000006
TRISD7                            00000007
TRISE                             00000F96
TRISE0                            00000000
TRISE1                            00000001
TRISE2                            00000002
TRMT                              00000001
TUN0                              00000000
MPASM 5.86               JOYSTICK TO PWM.ASM   4-1-2022  0:39:49         PAGE 37


SYMBOL TABLE
  LABEL                             VALUE 

TUN1                              00000001
TUN2                              00000002
TUN3                              00000003
TUN4                              00000004
TX                                00000006
TX9                               00000006
TX9D                              00000000
TXCKP                             00000004
TXEN                              00000005
TXIE                              00000004
TXIF                              00000004
TXIP                              00000004
TXREG                             00000FAD
TXSTA                             00000FAC
UA                                00000001
VCFG0                             00000004
VCFG1                             00000005
VDIRMAG                           00000007
VPP                               00000003
VREFM                             00000002
VREFP                             00000003
W                                 00000000
WAIT_RX                           00000434
WAIT_RX_AUTO                      0000035A
WAIT_RX_AUTO_PLAY                 0000038E
WAIT_RX_START_REC                 0000012E
WAIT_TRANS_AUTO                   00000388
WAIT_TRANS_DELAY_H                0000050C
WAIT_TRANS_DELAY_L                000004FE
WAIT_TRANS_NOTE_LETTER            000004F0
WAIT_TRANS_START_REC              00000128
WAIT_TRANS_STOP_REC               000004B6
WCOL                              00000007
WDTCON                            00000FD1
WIPE_LOOP                         00000114
WIPE_RAM                          0000010C
WR                                00000001
WREG                              00000FE8
WREN                              00000002
WRERR                             00000003
WUE                               00000001
Z                                 00000002
_BBSIZ_BB1K_4L                    000000FF
_BBSIZ_BB256_4L                   000000CF
_BBSIZ_BB512_4L                   000000DF
_BORV_0_2L                        000000E7
_BORV_1_2L                        000000EF
_BORV_2_2L                        000000F7
_BORV_3_2L                        000000FF
_BOR_NOSLP_2L                     000000FD
_BOR_OFF_2L                       000000F9
_BOR_ON_2L                        000000FF
_BOR_SOFT_2L                      000000FB
MPASM 5.86               JOYSTICK TO PWM.ASM   4-1-2022  0:39:49         PAGE 38


SYMBOL TABLE
  LABEL                             VALUE 

_CCP2MX_RB3_3H                    000000FE
_CCP2MX_RC1_3H                    000000FF
_CONFIG1H                         00300001
_CONFIG2H                         00300003
_CONFIG2L                         00300002
_CONFIG3H                         00300005
_CONFIG4L                         00300006
_CONFIG5H                         00300009
_CONFIG5L                         00300008
_CONFIG6H                         0030000B
_CONFIG6L                         0030000A
_CONFIG7H                         0030000D
_CONFIG7L                         0030000C
_CP0_OFF_5L                       000000FF
_CP0_ON_5L                        000000FE
_CP1_OFF_5L                       000000FF
_CP1_ON_5L                        000000FD
_CPB_OFF_5H                       000000FF
_CPB_ON_5H                        000000BF
_CPD_OFF_5H                       000000FF
_CPD_ON_5H                        0000007F
_DEBUG_OFF_4L                     000000FF
_DEBUG_ON_4L                      0000007F
_DEVID1                           003FFFFE
_DEVID2                           003FFFFF
_EBTR0_OFF_7L                     000000FF
_EBTR0_ON_7L                      000000FE
_EBTR1_OFF_7L                     000000FF
_EBTR1_ON_7L                      000000FD
_EBTRB_OFF_7H                     000000FF
_EBTRB_ON_7H                      000000BF
_FCMEN_OFF_1H                     000000BF
_FCMEN_ON_1H                      000000FF
_IDLOC0                           00200000
_IDLOC1                           00200001
_IDLOC2                           00200002
_IDLOC3                           00200003
_IDLOC4                           00200004
_IDLOC5                           00200005
_IDLOC6                           00200006
_IDLOC7                           00200007
_IESO_OFF_1H                      0000007F
_IESO_ON_1H                       000000FF
_LPT1OSC_OFF_3H                   000000FB
_LPT1OSC_ON_3H                    000000FF
_LVP_OFF_4L                       000000FB
_LVP_ON_4L                        000000FF
_MCLRE_OFF_3H                     0000007F
_MCLRE_ON_3H                      000000FF
_OSC_ECIO_1H                      000000F5
_OSC_EC_1H                        000000F4
_OSC_HSPLL_1H                     000000F6
_OSC_HS_1H                        000000F2
MPASM 5.86               JOYSTICK TO PWM.ASM   4-1-2022  0:39:49         PAGE 39


SYMBOL TABLE
  LABEL                             VALUE 

_OSC_INTIO1_1H                    000000F9
_OSC_INTIO2_1H                    000000F8
_OSC_LP_1H                        000000F0
_OSC_RCIO_1H                      000000F7
_OSC_RC_1H                        000000F3
_OSC_XT_1H                        000000F1
_PBADEN_ANA_3H                    000000FF
_PBADEN_DIG_3H                    000000FD
_PWRT_OFF_2L                      000000FF
_PWRT_ON_2L                       000000FE
_STVREN_OFF_4L                    000000FE
_STVREN_ON_4L                     000000FF
_WDTPS_1024_2H                    000000F5
_WDTPS_128_2H                     000000EF
_WDTPS_16384_2H                   000000FD
_WDTPS_16_2H                      000000E9
_WDTPS_1_2H                       000000E1
_WDTPS_2048_2H                    000000F7
_WDTPS_256_2H                     000000F1
_WDTPS_2_2H                       000000E3
_WDTPS_32768_2H                   000000FF
_WDTPS_32_2H                      000000EB
_WDTPS_4096_2H                    000000F9
_WDTPS_4_2H                       000000E5
_WDTPS_512_2H                     000000F3
_WDTPS_64_2H                      000000ED
_WDTPS_8192_2H                    000000FB
_WDTPS_8_2H                       000000E7
_WDT_OFF_2H                       000000FE
_WDT_ON_2H                        000000FF
_WRT0_OFF_6L                      000000FF
_WRT0_ON_6L                       000000FE
_WRT1_OFF_6L                      000000FF
_WRT1_ON_6L                       000000FD
_WRTB_OFF_6H                      000000FF
_WRTB_ON_6H                       000000BF
_WRTC_OFF_6H                      000000FF
_WRTC_ON_6H                       000000DF
_WRTD_OFF_6H                      000000FF
_WRTD_ON_6H                       0000007F
_XINST_OFF_4L                     000000BF
_XINST_ON_4L                      000000FF
__18F4321                         00000001
check2                            000002F0
debouce_counterH                  0000000B
debouce_counterL                  0000000A
flags                             00000004
middle                            000002FC
noteLetter                        0000000E
position                          00000003
pwmTimeH                          00000020
pwmTimeL                          00000021
readH                             00000001
MPASM 5.86               JOYSTICK TO PWM.ASM   4-1-2022  0:39:49         PAGE 40


SYMBOL TABLE
  LABEL                             VALUE 

readL                             00000002
recordTimeH                       0000000D
recordTimeL                       0000000C
savedTimeH                        00000008
savedTimeL                        00000007
servoFlags                        00000009
timeNoteH                         00000006
timeNoteL                         00000005

Errors   :     0
Warnings :   109 reported,     0 suppressed
Messages :     0 reported,     0 suppressed

